; Function Attrs: mustprogress uwtable
define void @_ZN7rocksdb18WriteUnpreparedTxn21RebuildFromWriteBatchEPNS_10WriteBatchE(ptr dead_on_unwind noalias writable sret(%"class.rocksdb::Status") align 8 %0, ptr noundef nonnull align 8 dereferenceable(848) %1, ptr noundef nonnull %2) unnamed_addr #4 align 2 personality ptr @__gxx_personality_v0 {
  %4 = alloca %struct.TrackKeyHandler, align 8
  call void @llvm.lifetime.start.p0(i64 24, ptr nonnull %4) #28
  %5 = getelementptr inbounds nuw i8, ptr %1, i64 672
  %6 = load ptr, ptr %5, align 8, !tbaa !173
  %7 = getelementptr inbounds nuw i8, ptr %6, i64 116
  %8 = load i8, ptr %7, align 4, !tbaa !339, !range !37, !noundef !38
  store ptr getelementptr inbounds nuw inrange(-16, 192) (i8, ptr @_ZTVZN7rocksdb18WriteUnpreparedTxn21RebuildFromWriteBatchEPNS_10WriteBatchEE15TrackKeyHandler, i64 16), ptr %4, align 8, !tbaa !155
  %9 = getelementptr inbounds nuw i8, ptr %4, i64 8
  store ptr %1, ptr %9, align 8, !tbaa !340
  %10 = getelementptr inbounds nuw i8, ptr %4, i64 16
  store i8 %8, ptr %10, align 8, !tbaa !343
  invoke void @_ZNK7rocksdb10WriteBatch7IterateEPNS0_7HandlerE(ptr dead_on_unwind writable sret(%"class.rocksdb::Status") align 8 %0, ptr noundef nonnull align 8 dereferenceable(160) %2, ptr noundef nonnull %4)
          to label %11 unwind label %12

11:                                               ; preds = %3
  call void @_ZN7rocksdb10WriteBatch7HandlerD2Ev(ptr noundef nonnull align 8 dereferenceable(17) %4) #28
  call void @llvm.lifetime.end.p0(i64 24, ptr nonnull %4) #28
  ret void

12:                                               ; preds = %3
  %13 = landingpad { ptr, i32 }
          cleanup
  call void @_ZN7rocksdb10WriteBatch7HandlerD2Ev(ptr noundef nonnull align 8 dereferenceable(17) %4) #28
  call void @llvm.lifetime.end.p0(i64 24, ptr nonnull %4) #28
  resume { ptr, i32 } %13
}